target datalayout = "e-m:e-p270:32:32-p271:32:32-p272:64:64-i64:64-i128:128-f80:128-n8:16:32:64-S128"
target triple = "x86_64-unknown-linux-gnu"

%class.aiVector3t = type { float, float, float }
%struct.aiMesh = type { i32, i32, i32, ptr, ptr, ptr, ptr, [8 x ptr], [8 x ptr], [8 x i32], ptr, i32, ptr, i32, %struct.aiString, i32, ptr, i32, %struct.aiAABB, ptr }
%struct.aiString = type { i32, [1024 x i8] }
%struct.aiAABB = type { %class.aiVector3t, %class.aiVector3t }
%struct.aiFace = type { i32, ptr }

; Function Attrs: mustprogress nounwind uwtable
define hidden void @_Z13RemoveUVSeamsP6aiMeshP10aiVector3tIfE(ptr noundef %mesh, ptr noundef %out) #0 {
entry:
  %mesh.addr = alloca ptr, align 8
  %out.addr = alloca ptr, align 8
  %fidx = alloca i32, align 4
  %face = alloca ptr, align 8
  %smallV = alloca i32, align 4
  %large = alloca i32, align 4
  %zero = alloca i8, align 1
  %one = alloca i8, align 1
  %round_to_zero = alloca i8, align 1
  %n = alloca i32, align 4
  %n46 = alloca i32, align 4
  store ptr %mesh, ptr %mesh.addr, align 8
  store ptr %out, ptr %out.addr, align 8
  store i32 0, ptr %fidx, align 4
  br label %for.cond

for.cond:                                         ; preds = %for.inc130, %entry
  %0 = load i32, ptr %fidx, align 4
  %1 = load ptr, ptr %mesh.addr, align 8
  %mNumFaces = getelementptr inbounds %struct.aiMesh, ptr %1, i32 0, i32 2
  %2 = load i32, ptr %mNumFaces, align 8
  %cmp = icmp ult i32 %0, %2
  br i1 %cmp, label %for.body, label %for.end132

for.body:                                         ; preds = %for.cond
  %3 = load ptr, ptr %mesh.addr, align 8
  %mFaces = getelementptr inbounds %struct.aiMesh, ptr %3, i32 0, i32 10
  %4 = load ptr, ptr %mFaces, align 8
  %5 = load i32, ptr %fidx, align 4
  %idxprom = zext i32 %5 to i64
  %arrayidx = getelementptr inbounds %struct.aiFace, ptr %4, i64 %idxprom
  store ptr %arrayidx, ptr %face, align 8
  %6 = load ptr, ptr %face, align 8
  %mNumIndices = getelementptr inbounds %struct.aiFace, ptr %6, i32 0, i32 0
  %7 = load i32, ptr %mNumIndices, align 8
  %cmp1 = icmp ult i32 %7, 3
  br i1 %cmp1, label %if.then, label %if.end

if.then:                                          ; preds = %for.body
  br label %for.inc130

if.end:                                           ; preds = %for.body
  %8 = load ptr, ptr %face, align 8
  %mNumIndices2 = getelementptr inbounds %struct.aiFace, ptr %8, i32 0, i32 0
  %9 = load i32, ptr %mNumIndices2, align 8
  store i32 %9, ptr %smallV, align 4
  %10 = load i32, ptr %smallV, align 4
  store i32 %10, ptr %large, align 4
  store i8 0, ptr %zero, align 1
  store i8 0, ptr %one, align 1
  store i8 0, ptr %round_to_zero, align 1
  store i32 0, ptr %n, align 4
  br label %for.cond3

for.cond3:                                        ; preds = %for.inc, %if.end
  %11 = load i32, ptr %n, align 4
  %12 = load ptr, ptr %face, align 8
  %mNumIndices4 = getelementptr inbounds %struct.aiFace, ptr %12, i32 0, i32 0
  %13 = load i32, ptr %mNumIndices4, align 8
  %cmp5 = icmp ult i32 %11, %13
  br i1 %cmp5, label %for.body6, label %for.end

for.body6:                                        ; preds = %for.cond3
  %14 = load ptr, ptr %out.addr, align 8
  %15 = load ptr, ptr %face, align 8
  %mIndices = getelementptr inbounds %struct.aiFace, ptr %15, i32 0, i32 1
  %16 = load ptr, ptr %mIndices, align 8
  %17 = load i32, ptr %n, align 4
  %idxprom7 = zext i32 %17 to i64
  %arrayidx8 = getelementptr inbounds i32, ptr %16, i64 %idxprom7
  %18 = load i32, ptr %arrayidx8, align 4
  %idxprom9 = zext i32 %18 to i64
  %arrayidx10 = getelementptr inbounds %class.aiVector3t, ptr %14, i64 %idxprom9
  %x = getelementptr inbounds %class.aiVector3t, ptr %arrayidx10, i32 0, i32 0
  %19 = load float, ptr %x, align 4
  %cmp11 = fcmp olt float %19, 0x3FB99999A0000000
  br i1 %cmp11, label %if.then12, label %if.end22

if.then12:                                        ; preds = %for.body6
  %20 = load i32, ptr %n, align 4
  store i32 %20, ptr %smallV, align 4
  %21 = load ptr, ptr %out.addr, align 8
  %22 = load ptr, ptr %face, align 8
  %mIndices13 = getelementptr inbounds %struct.aiFace, ptr %22, i32 0, i32 1
  %23 = load ptr, ptr %mIndices13, align 8
  %24 = load i32, ptr %n, align 4
  %idxprom14 = zext i32 %24 to i64
  %arrayidx15 = getelementptr inbounds i32, ptr %23, i64 %idxprom14
  %25 = load i32, ptr %arrayidx15, align 4
  %idxprom16 = zext i32 %25 to i64
  %arrayidx17 = getelementptr inbounds %class.aiVector3t, ptr %21, i64 %idxprom16
  %x18 = getelementptr inbounds %class.aiVector3t, ptr %arrayidx17, i32 0, i32 0
  %26 = load float, ptr %x18, align 4
  %cmp19 = fcmp ole float %26, 0x3F847AE140000000
  br i1 %cmp19, label %if.then20, label %if.else

if.then20:                                        ; preds = %if.then12
  store i8 1, ptr %zero, align 1
  br label %if.end21

if.else:                                          ; preds = %if.then12
  store i8 1, ptr %round_to_zero, align 1
  br label %if.end21

if.end21:                                         ; preds = %if.else, %if.then20
  br label %if.end22

if.end22:                                         ; preds = %if.end21, %for.body6
  %27 = load ptr, ptr %out.addr, align 8
  %28 = load ptr, ptr %face, align 8
  %mIndices23 = getelementptr inbounds %struct.aiFace, ptr %28, i32 0, i32 1
  %29 = load ptr, ptr %mIndices23, align 8
  %30 = load i32, ptr %n, align 4
  %idxprom24 = zext i32 %30 to i64
  %arrayidx25 = getelementptr inbounds i32, ptr %29, i64 %idxprom24
  %31 = load i32, ptr %arrayidx25, align 4
  %idxprom26 = zext i32 %31 to i64
  %arrayidx27 = getelementptr inbounds %class.aiVector3t, ptr %27, i64 %idxprom26
  %x28 = getelementptr inbounds %class.aiVector3t, ptr %arrayidx27, i32 0, i32 0
  %32 = load float, ptr %x28, align 4
  %cmp29 = fcmp ogt float %32, 0x3FECCCCCC0000000
  br i1 %cmp29, label %if.then30, label %if.end40

if.then30:                                        ; preds = %if.end22
  %33 = load i32, ptr %n, align 4
  store i32 %33, ptr %large, align 4
  %34 = load ptr, ptr %out.addr, align 8
  %35 = load ptr, ptr %face, align 8
  %mIndices31 = getelementptr inbounds %struct.aiFace, ptr %35, i32 0, i32 1
  %36 = load ptr, ptr %mIndices31, align 8
  %37 = load i32, ptr %n, align 4
  %idxprom32 = zext i32 %37 to i64
  %arrayidx33 = getelementptr inbounds i32, ptr %36, i64 %idxprom32
  %38 = load i32, ptr %arrayidx33, align 4
  %idxprom34 = zext i32 %38 to i64
  %arrayidx35 = getelementptr inbounds %class.aiVector3t, ptr %34, i64 %idxprom34
  %x36 = getelementptr inbounds %class.aiVector3t, ptr %arrayidx35, i32 0, i32 0
  %39 = load float, ptr %x36, align 4
  %cmp37 = fcmp oge float %39, 0x3FEFAE1480000000
  br i1 %cmp37, label %if.then38, label %if.end39

if.then38:                                        ; preds = %if.then30
  store i8 1, ptr %one, align 1
  br label %if.end39

if.end39:                                         ; preds = %if.then38, %if.then30
  br label %if.end40

if.end40:                                         ; preds = %if.end39, %if.end22
  br label %for.inc

for.inc:                                          ; preds = %if.end40
  %40 = load i32, ptr %n, align 4
  %inc = add i32 %40, 1
  store i32 %inc, ptr %n, align 4
  br label %for.cond3, !llvm.loop !4

for.end:                                          ; preds = %for.cond3
  %41 = load i32, ptr %smallV, align 4
  %42 = load ptr, ptr %face, align 8
  %mNumIndices41 = getelementptr inbounds %struct.aiFace, ptr %42, i32 0, i32 0
  %43 = load i32, ptr %mNumIndices41, align 8
  %cmp42 = icmp ne i32 %41, %43
  br i1 %cmp42, label %land.lhs.true, label %if.end129

land.lhs.true:                                    ; preds = %for.end
  %44 = load i32, ptr %large, align 4
  %45 = load ptr, ptr %face, align 8
  %mNumIndices43 = getelementptr inbounds %struct.aiFace, ptr %45, i32 0, i32 0
  %46 = load i32, ptr %mNumIndices43, align 8
  %cmp44 = icmp ne i32 %44, %46
  br i1 %cmp44, label %if.then45, label %if.end129

if.then45:                                        ; preds = %land.lhs.true
  store i32 0, ptr %n46, align 4
  br label %for.cond47

for.cond47:                                       ; preds = %for.inc126, %if.then45
  %47 = load i32, ptr %n46, align 4
  %48 = load ptr, ptr %face, align 8
  %mNumIndices48 = getelementptr inbounds %struct.aiFace, ptr %48, i32 0, i32 0
  %49 = load i32, ptr %mNumIndices48, align 8
  %cmp49 = icmp ult i32 %47, %49
  br i1 %cmp49, label %for.body50, label %for.end128

for.body50:                                       ; preds = %for.cond47
  %50 = load ptr, ptr %out.addr, align 8
  %51 = load ptr, ptr %face, align 8
  %mIndices51 = getelementptr inbounds %struct.aiFace, ptr %51, i32 0, i32 1
  %52 = load ptr, ptr %mIndices51, align 8
  %53 = load i32, ptr %n46, align 4
  %idxprom52 = zext i32 %53 to i64
  %arrayidx53 = getelementptr inbounds i32, ptr %52, i64 %idxprom52
  %54 = load i32, ptr %arrayidx53, align 4
  %idxprom54 = zext i32 %54 to i64
  %arrayidx55 = getelementptr inbounds %class.aiVector3t, ptr %50, i64 %idxprom54
  %x56 = getelementptr inbounds %class.aiVector3t, ptr %arrayidx55, i32 0, i32 0
  %55 = load float, ptr %x56, align 4
  %cmp57 = fcmp ogt float %55, 0x3FECCCCCC0000000
  br i1 %cmp57, label %land.lhs.true58, label %if.else66

land.lhs.true58:                                  ; preds = %for.body50
  %56 = load i8, ptr %zero, align 1
  %tobool = trunc i8 %56 to i1
  br i1 %tobool, label %if.else66, label %if.then59

if.then59:                                        ; preds = %land.lhs.true58
  %57 = load ptr, ptr %out.addr, align 8
  %58 = load ptr, ptr %face, align 8
  %mIndices60 = getelementptr inbounds %struct.aiFace, ptr %58, i32 0, i32 1
  %59 = load ptr, ptr %mIndices60, align 8
  %60 = load i32, ptr %n46, align 4
  %idxprom61 = zext i32 %60 to i64
  %arrayidx62 = getelementptr inbounds i32, ptr %59, i64 %idxprom61
  %61 = load i32, ptr %arrayidx62, align 4
  %idxprom63 = zext i32 %61 to i64
  %arrayidx64 = getelementptr inbounds %class.aiVector3t, ptr %57, i64 %idxprom63
  %x65 = getelementptr inbounds %class.aiVector3t, ptr %arrayidx64, i32 0, i32 0
  store float 0.000000e+00, ptr %x65, align 4
  br label %if.end125

if.else66:                                        ; preds = %land.lhs.true58, %for.body50
  %62 = load ptr, ptr %out.addr, align 8
  %63 = load ptr, ptr %face, align 8
  %mIndices67 = getelementptr inbounds %struct.aiFace, ptr %63, i32 0, i32 1
  %64 = load ptr, ptr %mIndices67, align 8
  %65 = load i32, ptr %n46, align 4
  %idxprom68 = zext i32 %65 to i64
  %arrayidx69 = getelementptr inbounds i32, ptr %64, i64 %idxprom68
  %66 = load i32, ptr %arrayidx69, align 4
  %idxprom70 = zext i32 %66 to i64
  %arrayidx71 = getelementptr inbounds %class.aiVector3t, ptr %62, i64 %idxprom70
  %x72 = getelementptr inbounds %class.aiVector3t, ptr %arrayidx71, i32 0, i32 0
  %67 = load float, ptr %x72, align 4
  %cmp73 = fcmp olt float %67, 0x3FB99999A0000000
  br i1 %cmp73, label %land.lhs.true74, label %if.else83

land.lhs.true74:                                  ; preds = %if.else66
  %68 = load i8, ptr %one, align 1
  %tobool75 = trunc i8 %68 to i1
  br i1 %tobool75, label %if.else83, label %if.then76

if.then76:                                        ; preds = %land.lhs.true74
  %69 = load ptr, ptr %out.addr, align 8
  %70 = load ptr, ptr %face, align 8
  %mIndices77 = getelementptr inbounds %struct.aiFace, ptr %70, i32 0, i32 1
  %71 = load ptr, ptr %mIndices77, align 8
  %72 = load i32, ptr %n46, align 4
  %idxprom78 = zext i32 %72 to i64
  %arrayidx79 = getelementptr inbounds i32, ptr %71, i64 %idxprom78
  %73 = load i32, ptr %arrayidx79, align 4
  %idxprom80 = zext i32 %73 to i64
  %arrayidx81 = getelementptr inbounds %class.aiVector3t, ptr %69, i64 %idxprom80
  %x82 = getelementptr inbounds %class.aiVector3t, ptr %arrayidx81, i32 0, i32 0
  store float 1.000000e+00, ptr %x82, align 4
  br label %if.end124

if.else83:                                        ; preds = %land.lhs.true74, %if.else66
  %74 = load i8, ptr %one, align 1
  %tobool84 = trunc i8 %74 to i1
  br i1 %tobool84, label %land.lhs.true85, label %if.end123

land.lhs.true85:                                  ; preds = %if.else83
  %75 = load i8, ptr %zero, align 1
  %tobool86 = trunc i8 %75 to i1
  br i1 %tobool86, label %if.then87, label %if.end123

if.then87:                                        ; preds = %land.lhs.true85
  %76 = load i8, ptr %round_to_zero, align 1
  %tobool88 = trunc i8 %76 to i1
  br i1 %tobool88, label %land.lhs.true89, label %if.else104

land.lhs.true89:                                  ; preds = %if.then87
  %77 = load ptr, ptr %out.addr, align 8
  %78 = load ptr, ptr %face, align 8
  %mIndices90 = getelementptr inbounds %struct.aiFace, ptr %78, i32 0, i32 1
  %79 = load ptr, ptr %mIndices90, align 8
  %80 = load i32, ptr %n46, align 4
  %idxprom91 = zext i32 %80 to i64
  %arrayidx92 = getelementptr inbounds i32, ptr %79, i64 %idxprom91
  %81 = load i32, ptr %arrayidx92, align 4
  %idxprom93 = zext i32 %81 to i64
  %arrayidx94 = getelementptr inbounds %class.aiVector3t, ptr %77, i64 %idxprom93
  %x95 = getelementptr inbounds %class.aiVector3t, ptr %arrayidx94, i32 0, i32 0
  %82 = load float, ptr %x95, align 4
  %cmp96 = fcmp oge float %82, 0x3FEFAE1480000000
  br i1 %cmp96, label %if.then97, label %if.else104

if.then97:                                        ; preds = %land.lhs.true89
  %83 = load ptr, ptr %out.addr, align 8
  %84 = load ptr, ptr %face, align 8
  %mIndices98 = getelementptr inbounds %struct.aiFace, ptr %84, i32 0, i32 1
  %85 = load ptr, ptr %mIndices98, align 8
  %86 = load i32, ptr %n46, align 4
  %idxprom99 = zext i32 %86 to i64
  %arrayidx100 = getelementptr inbounds i32, ptr %85, i64 %idxprom99
  %87 = load i32, ptr %arrayidx100, align 4
  %idxprom101 = zext i32 %87 to i64
  %arrayidx102 = getelementptr inbounds %class.aiVector3t, ptr %83, i64 %idxprom101
  %x103 = getelementptr inbounds %class.aiVector3t, ptr %arrayidx102, i32 0, i32 0
  store float 0.000000e+00, ptr %x103, align 4
  br label %if.end122

if.else104:                                       ; preds = %land.lhs.true89, %if.then87
  %88 = load i8, ptr %round_to_zero, align 1
  %tobool105 = trunc i8 %88 to i1
  br i1 %tobool105, label %if.end121, label %land.lhs.true106

land.lhs.true106:                                 ; preds = %if.else104
  %89 = load ptr, ptr %out.addr, align 8
  %90 = load ptr, ptr %face, align 8
  %mIndices107 = getelementptr inbounds %struct.aiFace, ptr %90, i32 0, i32 1
  %91 = load ptr, ptr %mIndices107, align 8
  %92 = load i32, ptr %n46, align 4
  %idxprom108 = zext i32 %92 to i64
  %arrayidx109 = getelementptr inbounds i32, ptr %91, i64 %idxprom108
  %93 = load i32, ptr %arrayidx109, align 4
  %idxprom110 = zext i32 %93 to i64
  %arrayidx111 = getelementptr inbounds %class.aiVector3t, ptr %89, i64 %idxprom110
  %x112 = getelementptr inbounds %class.aiVector3t, ptr %arrayidx111, i32 0, i32 0
  %94 = load float, ptr %x112, align 4
  %cmp113 = fcmp ole float %94, 0x3F847AE140000000
  br i1 %cmp113, label %if.then114, label %if.end121

if.then114:                                       ; preds = %land.lhs.true106
  %95 = load ptr, ptr %out.addr, align 8
  %96 = load ptr, ptr %face, align 8
  %mIndices115 = getelementptr inbounds %struct.aiFace, ptr %96, i32 0, i32 1
  %97 = load ptr, ptr %mIndices115, align 8
  %98 = load i32, ptr %n46, align 4
  %idxprom116 = zext i32 %98 to i64
  %arrayidx117 = getelementptr inbounds i32, ptr %97, i64 %idxprom116
  %99 = load i32, ptr %arrayidx117, align 4
  %idxprom118 = zext i32 %99 to i64
  %arrayidx119 = getelementptr inbounds %class.aiVector3t, ptr %95, i64 %idxprom118
  %x120 = getelementptr inbounds %class.aiVector3t, ptr %arrayidx119, i32 0, i32 0
  store float 1.000000e+00, ptr %x120, align 4
  br label %if.end121

if.end121:                                        ; preds = %if.then114, %land.lhs.true106, %if.else104
  br label %if.end122

if.end122:                                        ; preds = %if.end121, %if.then97
  br label %if.end123

if.end123:                                        ; preds = %if.end122, %land.lhs.true85, %if.else83
  br label %if.end124

if.end124:                                        ; preds = %if.end123, %if.then76
  br label %if.end125

if.end125:                                        ; preds = %if.end124, %if.then59
  br label %for.inc126

for.inc126:                                       ; preds = %if.end125
  %100 = load i32, ptr %n46, align 4
  %inc127 = add i32 %100, 1
  store i32 %inc127, ptr %n46, align 4
  br label %for.cond47, !llvm.loop !6

for.end128:                                       ; preds = %for.cond47
  br label %if.end129

if.end129:                                        ; preds = %for.end128, %land.lhs.true, %for.end
  br label %for.inc130

for.inc130:                                       ; preds = %if.end129, %if.then
  %101 = load i32, ptr %fidx, align 4
  %inc131 = add i32 %101, 1
  store i32 %inc131, ptr %fidx, align 4
  br label %for.cond, !llvm.loop !7

for.end132:                                       ; preds = %for.cond
  ret void
}